; ModuleID = 'source-C-CXX/11/1480.cpp'
source_filename = "source-C-CXX/11/1480.cpp"
target datalayout = "e-m:e-p270:32:32-p271:32:32-p272:64:64-i64:64-f80:128-n8:16:32:64-S128"
target triple = "x86_64-pc-linux-gnu"

%"class.std::ios_base::Init" = type { i8 }
%"class.std::basic_istream" = type { i32 (...)**, i64, %"class.std::basic_ios" }
%"class.std::basic_ios" = type { %"class.std::ios_base", %"class.std::basic_ostream"*, i8, i8, %"class.std::basic_streambuf"*, %"class.std::ctype"*, %"class.std::num_put"*, %"class.std::num_get"* }
%"class.std::ios_base" = type { i32 (...)**, i64, i64, i32, i32, i32, %"struct.std::ios_base::_Callback_list"*, %"struct.std::ios_base::_Words", [8 x %"struct.std::ios_base::_Words"], i32, %"struct.std::ios_base::_Words"*, %"class.std::locale" }
%"struct.std::ios_base::_Callback_list" = type { %"struct.std::ios_base::_Callback_list"*, void (i32, %"class.std::ios_base"*, i32)*, i32, i32 }
%"struct.std::ios_base::_Words" = type { i8*, i64 }
%"class.std::locale" = type { %"class.std::locale::_Impl"* }
%"class.std::locale::_Impl" = type { i32, %"class.std::locale::facet"**, i64, %"class.std::locale::facet"**, i8** }
%"class.std::locale::facet" = type <{ i32 (...)**, i32, [4 x i8] }>
%"class.std::basic_ostream" = type { i32 (...)**, %"class.std::basic_ios" }
%"class.std::basic_streambuf" = type { i32 (...)**, i8*, i8*, i8*, i8*, i8*, i8*, %"class.std::locale" }
%"class.std::ctype" = type <{ %"class.std::locale::facet.base", [4 x i8], %struct.__locale_struct*, i8, [7 x i8], i32*, i32*, i16*, i8, [256 x i8], [256 x i8], i8, [6 x i8] }>
%"class.std::locale::facet.base" = type <{ i32 (...)**, i32 }>
%struct.__locale_struct = type { [13 x %struct.__locale_data*], i16*, i32*, i32*, [13 x i8*] }
%struct.__locale_data = type opaque
%"class.std::num_put" = type { %"class.std::locale::facet.base", [4 x i8] }
%"class.std::num_get" = type { %"class.std::locale::facet.base", [4 x i8] }

@_ZStL8__ioinit = internal global %"class.std::ios_base::Init" zeroinitializer, align 1
@__dso_handle = external hidden global i8
@_ZSt3cin = external global %"class.std::basic_istream", align 8
@_ZSt4cout = external global %"class.std::basic_ostream", align 8
@llvm.global_ctors = appending global [1 x { i32, void ()*, i8* }] [{ i32, void ()*, i8* } { i32 65535, void ()* @_GLOBAL__sub_I_1480.cpp, i8* null }]

declare void @_ZNSt8ios_base4InitC1Ev(%"class.std::ios_base::Init"* nonnull align 1 dereferenceable(1)) unnamed_addr #0

; Function Attrs: nounwind
declare void @_ZNSt8ios_base4InitD1Ev(%"class.std::ios_base::Init"* nonnull align 1 dereferenceable(1)) unnamed_addr #1

; Function Attrs: nofree nounwind
declare i32 @__cxa_atexit(void (i8*)*, i8*, i8*) local_unnamed_addr #2

; Function Attrs: mustprogress norecurse sspstrong uwtable
define dso_local i32 @main() local_unnamed_addr #3 {
  %1 = alloca [2000 x i32], align 16
  %2 = bitcast [2000 x i32]* %1 to i8*
  call void @llvm.lifetime.start.p0i8(i64 8000, i8* nonnull %2) #8
  br label %3

3:                                                ; preds = %0, %156
  %4 = phi i64 [ 0, %0 ], [ %157, %156 ]
  %5 = phi i32 [ 0, %0 ], [ %158, %156 ]
  %6 = getelementptr inbounds [2000 x i32], [2000 x i32]* %1, i64 0, i64 %4
  %7 = call nonnull align 8 dereferenceable(16) %"class.std::basic_istream"* @_ZNSirsERi(%"class.std::basic_istream"* nonnull align 8 dereferenceable(16) @_ZSt3cin, i32* nonnull align 4 dereferenceable(4) %6)
  %8 = load i32, i32* %6, align 4, !tbaa !5
  switch i32 %8, label %9 [
    i32 -1, label %160
    i32 0, label %11
  ]

9:                                                ; preds = %3
  %10 = add nuw nsw i64 %4, 1
  br label %156

11:                                               ; preds = %3
  %12 = sext i32 %5 to i64
  %13 = icmp sgt i64 %4, %12
  br i1 %13, label %14, label %122

14:                                               ; preds = %11
  %15 = sub i64 %4, %12
  %16 = add i64 %15, -8
  %17 = lshr i64 %16, 3
  %18 = add nuw nsw i64 %17, 1
  %19 = icmp ult i64 %15, 8
  %20 = and i64 %15, -8
  %21 = add i64 %20, %12
  %22 = and i64 %18, 1
  %23 = icmp ult i64 %16, 8
  %24 = and i64 %18, 4611686018427387902
  %25 = icmp eq i64 %22, 0
  %26 = icmp eq i64 %15, %20
  br label %27

27:                                               ; preds = %14, %118
  %28 = phi i64 [ %120, %118 ], [ %12, %14 ]
  %29 = phi i32 [ %119, %118 ], [ 0, %14 ]
  %30 = getelementptr inbounds [2000 x i32], [2000 x i32]* %1, i64 0, i64 %28
  %31 = load i32, i32* %30, align 4, !tbaa !5
  br i1 %19, label %104, label %32

32:                                               ; preds = %27
  %33 = insertelement <4 x i32> <i32 poison, i32 0, i32 0, i32 0>, i32 %29, i32 0
  %34 = insertelement <4 x i32> poison, i32 %31, i32 0
  %35 = shufflevector <4 x i32> %34, <4 x i32> poison, <4 x i32> zeroinitializer
  %36 = insertelement <4 x i32> poison, i32 %31, i32 0
  %37 = shufflevector <4 x i32> %36, <4 x i32> poison, <4 x i32> zeroinitializer
  br i1 %23, label %77, label %38

38:                                               ; preds = %32, %38
  %39 = phi i64 [ %74, %38 ], [ 0, %32 ]
  %40 = phi <4 x i32> [ %72, %38 ], [ %33, %32 ]
  %41 = phi <4 x i32> [ %73, %38 ], [ zeroinitializer, %32 ]
  %42 = phi i64 [ %75, %38 ], [ %24, %32 ]
  %43 = add i64 %39, %12
  %44 = getelementptr inbounds [2000 x i32], [2000 x i32]* %1, i64 0, i64 %43
  %45 = bitcast i32* %44 to <4 x i32>*
  %46 = load <4 x i32>, <4 x i32>* %45, align 4, !tbaa !5
  %47 = getelementptr inbounds i32, i32* %44, i64 4
  %48 = bitcast i32* %47 to <4 x i32>*
  %49 = load <4 x i32>, <4 x i32>* %48, align 4, !tbaa !5
  %50 = shl nsw <4 x i32> %46, <i32 1, i32 1, i32 1, i32 1>
  %51 = shl nsw <4 x i32> %49, <i32 1, i32 1, i32 1, i32 1>
  %52 = icmp eq <4 x i32> %35, %50
  %53 = icmp eq <4 x i32> %37, %51
  %54 = zext <4 x i1> %52 to <4 x i32>
  %55 = zext <4 x i1> %53 to <4 x i32>
  %56 = add <4 x i32> %40, %54
  %57 = add <4 x i32> %41, %55
  %58 = or i64 %39, 8
  %59 = add i64 %58, %12
  %60 = getelementptr inbounds [2000 x i32], [2000 x i32]* %1, i64 0, i64 %59
  %61 = bitcast i32* %60 to <4 x i32>*
  %62 = load <4 x i32>, <4 x i32>* %61, align 4, !tbaa !5
  %63 = getelementptr inbounds i32, i32* %60, i64 4
  %64 = bitcast i32* %63 to <4 x i32>*
  %65 = load <4 x i32>, <4 x i32>* %64, align 4, !tbaa !5
  %66 = shl nsw <4 x i32> %62, <i32 1, i32 1, i32 1, i32 1>
  %67 = shl nsw <4 x i32> %65, <i32 1, i32 1, i32 1, i32 1>
  %68 = icmp eq <4 x i32> %35, %66
  %69 = icmp eq <4 x i32> %37, %67
  %70 = zext <4 x i1> %68 to <4 x i32>
  %71 = zext <4 x i1> %69 to <4 x i32>
  %72 = add <4 x i32> %56, %70
  %73 = add <4 x i32> %57, %71
  %74 = add nuw i64 %39, 16
  %75 = add i64 %42, -2
  %76 = icmp eq i64 %75, 0
  br i1 %76, label %77, label %38, !llvm.loop !9

77:                                               ; preds = %38, %32
  %78 = phi <4 x i32> [ undef, %32 ], [ %72, %38 ]
  %79 = phi <4 x i32> [ undef, %32 ], [ %73, %38 ]
  %80 = phi i64 [ 0, %32 ], [ %74, %38 ]
  %81 = phi <4 x i32> [ %33, %32 ], [ %72, %38 ]
  %82 = phi <4 x i32> [ zeroinitializer, %32 ], [ %73, %38 ]
  br i1 %25, label %99, label %83

83:                                               ; preds = %77
  %84 = add i64 %80, %12
  %85 = getelementptr inbounds [2000 x i32], [2000 x i32]* %1, i64 0, i64 %84
  %86 = getelementptr inbounds i32, i32* %85, i64 4
  %87 = bitcast i32* %86 to <4 x i32>*
  %88 = load <4 x i32>, <4 x i32>* %87, align 4, !tbaa !5
  %89 = shl nsw <4 x i32> %88, <i32 1, i32 1, i32 1, i32 1>
  %90 = icmp eq <4 x i32> %37, %89
  %91 = zext <4 x i1> %90 to <4 x i32>
  %92 = add <4 x i32> %82, %91
  %93 = bitcast i32* %85 to <4 x i32>*
  %94 = load <4 x i32>, <4 x i32>* %93, align 4, !tbaa !5
  %95 = shl nsw <4 x i32> %94, <i32 1, i32 1, i32 1, i32 1>
  %96 = icmp eq <4 x i32> %35, %95
  %97 = zext <4 x i1> %96 to <4 x i32>
  %98 = add <4 x i32> %81, %97
  br label %99

99:                                               ; preds = %77, %83
  %100 = phi <4 x i32> [ %78, %77 ], [ %98, %83 ]
  %101 = phi <4 x i32> [ %79, %77 ], [ %92, %83 ]
  %102 = add <4 x i32> %101, %100
  %103 = call i32 @llvm.vector.reduce.add.v4i32(<4 x i32> %102)
  br i1 %26, label %118, label %104

104:                                              ; preds = %27, %99
  %105 = phi i64 [ %12, %27 ], [ %21, %99 ]
  %106 = phi i32 [ %29, %27 ], [ %103, %99 ]
  br label %107

107:                                              ; preds = %104, %107
  %108 = phi i64 [ %116, %107 ], [ %105, %104 ]
  %109 = phi i32 [ %115, %107 ], [ %106, %104 ]
  %110 = getelementptr inbounds [2000 x i32], [2000 x i32]* %1, i64 0, i64 %108
  %111 = load i32, i32* %110, align 4, !tbaa !5
  %112 = shl nsw i32 %111, 1
  %113 = icmp eq i32 %31, %112
  %114 = zext i1 %113 to i32
  %115 = add nsw i32 %109, %114
  %116 = add nsw i64 %108, 1
  %117 = icmp eq i64 %116, %4
  br i1 %117, label %118, label %107, !llvm.loop !12

118:                                              ; preds = %107, %99
  %119 = phi i32 [ %103, %99 ], [ %115, %107 ]
  %120 = add nsw i64 %28, 1
  %121 = icmp eq i64 %120, %4
  br i1 %121, label %122, label %27, !llvm.loop !14

122:                                              ; preds = %118, %11
  %123 = phi i32 [ 0, %11 ], [ %119, %118 ]
  %124 = call nonnull align 8 dereferenceable(8) %"class.std::basic_ostream"* @_ZNSolsEi(%"class.std::basic_ostream"* nonnull align 8 dereferenceable(8) @_ZSt4cout, i32 %123)
  %125 = bitcast %"class.std::basic_ostream"* %124 to i8**
  %126 = load i8*, i8** %125, align 8, !tbaa !15
  %127 = getelementptr i8, i8* %126, i64 -24
  %128 = bitcast i8* %127 to i64*
  %129 = load i64, i64* %128, align 8
  %130 = bitcast %"class.std::basic_ostream"* %124 to i8*
  %131 = add nsw i64 %129, 240
  %132 = getelementptr inbounds i8, i8* %130, i64 %131
  %133 = bitcast i8* %132 to %"class.std::ctype"**
  %134 = load %"class.std::ctype"*, %"class.std::ctype"** %133, align 8, !tbaa !17
  %135 = icmp eq %"class.std::ctype"* %134, null
  br i1 %135, label %136, label %137

136:                                              ; preds = %122
  call void @_ZSt16__throw_bad_castv() #9
  unreachable

137:                                              ; preds = %122
  %138 = getelementptr inbounds %"class.std::ctype", %"class.std::ctype"* %134, i64 0, i32 8
  %139 = load i8, i8* %138, align 8, !tbaa !21
  %140 = icmp eq i8 %139, 0
  br i1 %140, label %144, label %141

141:                                              ; preds = %137
  %142 = getelementptr inbounds %"class.std::ctype", %"class.std::ctype"* %134, i64 0, i32 9, i64 10
  %143 = load i8, i8* %142, align 1, !tbaa !23
  br label %150

144:                                              ; preds = %137
  call void @_ZNKSt5ctypeIcE13_M_widen_initEv(%"class.std::ctype"* nonnull align 8 dereferenceable(570) %134)
  %145 = bitcast %"class.std::ctype"* %134 to i8 (%"class.std::ctype"*, i8)***
  %146 = load i8 (%"class.std::ctype"*, i8)**, i8 (%"class.std::ctype"*, i8)*** %145, align 8, !tbaa !15
  %147 = getelementptr inbounds i8 (%"class.std::ctype"*, i8)*, i8 (%"class.std::ctype"*, i8)** %146, i64 6
  %148 = load i8 (%"class.std::ctype"*, i8)*, i8 (%"class.std::ctype"*, i8)** %147, align 8
  %149 = call signext i8 %148(%"class.std::ctype"* nonnull align 8 dereferenceable(570) %134, i8 signext 10)
  br label %150

150:                                              ; preds = %141, %144
  %151 = phi i8 [ %143, %141 ], [ %149, %144 ]
  %152 = call nonnull align 8 dereferenceable(8) %"class.std::basic_ostream"* @_ZNSo3putEc(%"class.std::basic_ostream"* nonnull align 8 dereferenceable(8) %124, i8 signext %151)
  %153 = call nonnull align 8 dereferenceable(8) %"class.std::basic_ostream"* @_ZNSo5flushEv(%"class.std::basic_ostream"* nonnull align 8 dereferenceable(8) %152)
  %154 = add nuw nsw i64 %4, 1
  %155 = trunc i64 %154 to i32
  br label %156

156:                                              ; preds = %9, %150
  %157 = phi i64 [ %10, %9 ], [ %154, %150 ]
  %158 = phi i32 [ %5, %9 ], [ %155, %150 ]
  %159 = icmp eq i64 %157, 2000
  br i1 %159, label %160, label %3, !llvm.loop !24

160:                                              ; preds = %3, %156
  call void @llvm.lifetime.end.p0i8(i64 8000, i8* nonnull %2) #8
  ret i32 0
}

; Function Attrs: argmemonly mustprogress nofree nosync nounwind willreturn
declare void @llvm.lifetime.start.p0i8(i64 immarg, i8* nocapture) #4

declare nonnull align 8 dereferenceable(16) %"class.std::basic_istream"* @_ZNSirsERi(%"class.std::basic_istream"* nonnull align 8 dereferenceable(16), i32* nonnull align 4 dereferenceable(4)) local_unnamed_addr #0

declare nonnull align 8 dereferenceable(8) %"class.std::basic_ostream"* @_ZNSolsEi(%"class.std::basic_ostream"* nonnull align 8 dereferenceable(8), i32) local_unnamed_addr #0

; Function Attrs: argmemonly mustprogress nofree nosync nounwind willreturn
declare void @llvm.lifetime.end.p0i8(i64 immarg, i8* nocapture) #4

declare nonnull align 8 dereferenceable(8) %"class.std::basic_ostream"* @_ZNSo3putEc(%"class.std::basic_ostream"* nonnull align 8 dereferenceable(8), i8 signext) local_unnamed_addr #0

declare nonnull align 8 dereferenceable(8) %"class.std::basic_ostream"* @_ZNSo5flushEv(%"class.std::basic_ostream"* nonnull align 8 dereferenceable(8)) local_unnamed_addr #0

; Function Attrs: noreturn
declare void @_ZSt16__throw_bad_castv() local_unnamed_addr #5

declare void @_ZNKSt5ctypeIcE13_M_widen_initEv(%"class.std::ctype"* nonnull align 8 dereferenceable(570)) local_unnamed_addr #0

; Function Attrs: sspstrong uwtable
define internal void @_GLOBAL__sub_I_1480.cpp() #6 section ".text.startup" {
  tail call void @_ZNSt8ios_base4InitC1Ev(%"class.std::ios_base::Init"* nonnull align 1 dereferenceable(1) @_ZStL8__ioinit)
  %1 = tail call i32 @__cxa_atexit(void (i8*)* bitcast (void (%"class.std::ios_base::Init"*)* @_ZNSt8ios_base4InitD1Ev to void (i8*)*), i8* getelementptr inbounds (%"class.std::ios_base::Init", %"class.std::ios_base::Init"* @_ZStL8__ioinit, i64 0, i32 0), i8* nonnull @__dso_handle) #8
  ret void
}

; Function Attrs: nofree nosync nounwind readnone willreturn
declare i32 @llvm.vector.reduce.add.v4i32(<4 x i32>) #7


!llvm.module.flags = !{!0, !1, !2, !3}
!llvm.ident = !{!4}

!0 = !{i32 1, !"wchar_size", i32 4}
!1 = !{i32 7, !"PIC Level", i32 2}
!2 = !{i32 7, !"PIE Level", i32 2}
!3 = !{i32 7, !"uwtable", i32 1}
!4 = !{!"clang version 13.0.0"}
!5 = !{!6, !6, i64 0}
!6 = !{!"int", !7, i64 0}
!7 = !{!"omnipotent char", !8, i64 0}
!8 = !{!"Simple C++ TBAA"}
!9 = distinct !{!9, !10, !11}
!10 = !{!"llvm.loop.mustprogress"}
!11 = !{!"llvm.loop.isvectorized", i32 1}
!12 = distinct !{!12, !10, !13, !11}
!13 = !{!"llvm.loop.unroll.runtime.disable"}
!14 = distinct !{!14, !10}
!15 = !{!16, !16, i64 0}
!16 = !{!"vtable pointer", !8, i64 0}
!17 = !{!18, !19, i64 240}
!18 = !{!"_ZTSSt9basic_iosIcSt11char_traitsIcEE", !19, i64 216, !7, i64 224, !20, i64 225, !19, i64 232, !19, i64 240, !19, i64 248, !19, i64 256}
!19 = !{!"any pointer", !7, i64 0}
!20 = !{!"bool", !7, i64 0}
!21 = !{!22, !7, i64 56}
!22 = !{!"_ZTSSt5ctypeIcE", !19, i64 16, !20, i64 24, !19, i64 32, !19, i64 40, !19, i64 48, !7, i64 56, !7, i64 57, !7, i64 313, !7, i64 569}
!23 = !{!7, !7, i64 0}
!24 = distinct !{!24, !10}
